target datalayout = "e-m:e-p270:32:32-p271:32:32-p272:64:64-i64:64-i128:128-f80:128-n8:16:32:64-S128"
target triple = "x86_64-pc-linux-gnu"

%struct._lv_draw_sw_mask_common_dsc_t = type { ptr, i32 }
%struct.lv_area_t = type { i32, i32, i32, i32 }
%struct._lv_draw_sw_mask_map_param_t = type { %struct._lv_draw_sw_mask_common_dsc_t, %struct.anon.3 }
%struct.anon.3 = type { %struct.lv_area_t, ptr }

; Function Attrs: inlinehint nounwind uwtable
define internal zeroext i8 @mask_mix(i8 noundef zeroext %0, i8 noundef zeroext %1) #3 {
  %3 = alloca i8, align 1
  %4 = alloca i8, align 1
  %5 = alloca i8, align 1
  store i8 %0, ptr %4, align 1, !tbaa !26
  store i8 %1, ptr %5, align 1, !tbaa !26
  %6 = load i8, ptr %5, align 1, !tbaa !26
  %7 = zext i8 %6 to i32
  %8 = icmp sge i32 %7, 253
  br i1 %8, label %9, label %11

9:                                                ; preds = %2
  %10 = load i8, ptr %4, align 1, !tbaa !26
  store i8 %10, ptr %3, align 1
  br label %25

11:                                               ; preds = %2
  %12 = load i8, ptr %5, align 1, !tbaa !26
  %13 = zext i8 %12 to i32
  %14 = icmp sle i32 %13, 2
  br i1 %14, label %15, label %16

15:                                               ; preds = %11
  store i8 0, ptr %3, align 1
  br label %25

16:                                               ; preds = %11
  %17 = load i8, ptr %4, align 1, !tbaa !26
  %18 = zext i8 %17 to i32
  %19 = load i8, ptr %5, align 1, !tbaa !26
  %20 = zext i8 %19 to i32
  %21 = mul nsw i32 %18, %20
  %22 = mul i32 %21, 32897
  %23 = lshr i32 %22, 23
  %24 = trunc i32 %23 to i8
  store i8 %24, ptr %3, align 1
  br label %25

25:                                               ; preds = %16, %15, %9
  %26 = load i8, ptr %3, align 1
  ret i8 %26
}

; Function Attrs: nounwind uwtable
define internal i32 @lv_draw_mask_map(ptr noundef %0, i32 noundef %1, i32 noundef %2, i32 noundef %3, ptr noundef %4) #0 {
  %6 = alloca i32, align 4
  %7 = alloca ptr, align 8
  %8 = alloca i32, align 4
  %9 = alloca i32, align 4
  %10 = alloca i32, align 4
  %11 = alloca ptr, align 8
  %12 = alloca ptr, align 8
  %13 = alloca i32, align 4
  %14 = alloca i32, align 4
  store ptr %0, ptr %7, align 8, !tbaa !3
  store i32 %1, ptr %8, align 4, !tbaa !7
  store i32 %2, ptr %9, align 4, !tbaa !7
  store i32 %3, ptr %10, align 4, !tbaa !7
  store ptr %4, ptr %11, align 8, !tbaa !3
  %15 = load i32, ptr %9, align 4, !tbaa !7
  %16 = load ptr, ptr %11, align 8, !tbaa !3
  %17 = getelementptr inbounds nuw %struct._lv_draw_sw_mask_map_param_t, ptr %16, i32 0, i32 1
  %18 = getelementptr inbounds nuw %struct.anon.3, ptr %17, i32 0, i32 0
  %19 = getelementptr inbounds nuw %struct.lv_area_t, ptr %18, i32 0, i32 1
  %20 = load i32, ptr %19, align 4, !tbaa !95
  %21 = icmp slt i32 %15, %20
  br i1 %21, label %22, label %23

22:                                               ; preds = %5
  store i32 1, ptr %6, align 4
  br label %153

23:                                               ; preds = %5
  %24 = load i32, ptr %9, align 4, !tbaa !7
  %25 = load ptr, ptr %11, align 8, !tbaa !3
  %26 = getelementptr inbounds nuw %struct._lv_draw_sw_mask_map_param_t, ptr %25, i32 0, i32 1
  %27 = getelementptr inbounds nuw %struct.anon.3, ptr %26, i32 0, i32 0
  %28 = getelementptr inbounds nuw %struct.lv_area_t, ptr %27, i32 0, i32 3
  %29 = load i32, ptr %28, align 4, !tbaa !96
  %30 = icmp sgt i32 %24, %29
  br i1 %30, label %31, label %32

31:                                               ; preds = %23
  store i32 1, ptr %6, align 4
  br label %153

32:                                               ; preds = %23
  %33 = load i32, ptr %8, align 4, !tbaa !7
  %34 = load i32, ptr %10, align 4, !tbaa !7
  %35 = add nsw i32 %33, %34
  %36 = load ptr, ptr %11, align 8, !tbaa !3
  %37 = getelementptr inbounds nuw %struct._lv_draw_sw_mask_map_param_t, ptr %36, i32 0, i32 1
  %38 = getelementptr inbounds nuw %struct.anon.3, ptr %37, i32 0, i32 0
  %39 = getelementptr inbounds nuw %struct.lv_area_t, ptr %38, i32 0, i32 0
  %40 = load i32, ptr %39, align 8, !tbaa !97
  %41 = icmp slt i32 %35, %40
  br i1 %41, label %42, label %43

42:                                               ; preds = %32
  store i32 1, ptr %6, align 4
  br label %153

43:                                               ; preds = %32
  %44 = load i32, ptr %8, align 4, !tbaa !7
  %45 = load ptr, ptr %11, align 8, !tbaa !3
  %46 = getelementptr inbounds nuw %struct._lv_draw_sw_mask_map_param_t, ptr %45, i32 0, i32 1
  %47 = getelementptr inbounds nuw %struct.anon.3, ptr %46, i32 0, i32 0
  %48 = getelementptr inbounds nuw %struct.lv_area_t, ptr %47, i32 0, i32 2
  %49 = load i32, ptr %48, align 8, !tbaa !98
  %50 = icmp sgt i32 %44, %49
  br i1 %50, label %51, label %52

51:                                               ; preds = %43
  store i32 1, ptr %6, align 4
  br label %153

52:                                               ; preds = %43
  call void @llvm.lifetime.start.p0(i64 8, ptr %12) #4
  %53 = load ptr, ptr %11, align 8, !tbaa !3
  %54 = getelementptr inbounds nuw %struct._lv_draw_sw_mask_map_param_t, ptr %53, i32 0, i32 1
  %55 = getelementptr inbounds nuw %struct.anon.3, ptr %54, i32 0, i32 1
  %56 = load ptr, ptr %55, align 8, !tbaa !90
  store ptr %56, ptr %12, align 8, !tbaa !3
  %57 = load i32, ptr %9, align 4, !tbaa !7
  %58 = load ptr, ptr %11, align 8, !tbaa !3
  %59 = getelementptr inbounds nuw %struct._lv_draw_sw_mask_map_param_t, ptr %58, i32 0, i32 1
  %60 = getelementptr inbounds nuw %struct.anon.3, ptr %59, i32 0, i32 0
  %61 = getelementptr inbounds nuw %struct.lv_area_t, ptr %60, i32 0, i32 1
  %62 = load i32, ptr %61, align 4, !tbaa !95
  %63 = sub nsw i32 %57, %62
  %64 = load ptr, ptr %11, align 8, !tbaa !3
  %65 = getelementptr inbounds nuw %struct._lv_draw_sw_mask_map_param_t, ptr %64, i32 0, i32 1
  %66 = getelementptr inbounds nuw %struct.anon.3, ptr %65, i32 0, i32 0
  %67 = call i32 @lv_area_get_width(ptr noundef %66)
  %68 = mul nsw i32 %63, %67
  %69 = load ptr, ptr %12, align 8, !tbaa !3
  %70 = sext i32 %68 to i64
  %71 = getelementptr inbounds i8, ptr %69, i64 %70
  store ptr %71, ptr %12, align 8, !tbaa !3
  %72 = load i32, ptr %8, align 4, !tbaa !7
  %73 = load i32, ptr %10, align 4, !tbaa !7
  %74 = add nsw i32 %72, %73
  %75 = load ptr, ptr %11, align 8, !tbaa !3
  %76 = getelementptr inbounds nuw %struct._lv_draw_sw_mask_map_param_t, ptr %75, i32 0, i32 1
  %77 = getelementptr inbounds nuw %struct.anon.3, ptr %76, i32 0, i32 0
  %78 = getelementptr inbounds nuw %struct.lv_area_t, ptr %77, i32 0, i32 2
  %79 = load i32, ptr %78, align 8, !tbaa !98
  %80 = icmp sgt i32 %74, %79
  br i1 %80, label %81, label %94

81:                                               ; preds = %52
  %82 = load i32, ptr %8, align 4, !tbaa !7
  %83 = load i32, ptr %10, align 4, !tbaa !7
  %84 = add nsw i32 %82, %83
  %85 = load ptr, ptr %11, align 8, !tbaa !3
  %86 = getelementptr inbounds nuw %struct._lv_draw_sw_mask_map_param_t, ptr %85, i32 0, i32 1
  %87 = getelementptr inbounds nuw %struct.anon.3, ptr %86, i32 0, i32 0
  %88 = getelementptr inbounds nuw %struct.lv_area_t, ptr %87, i32 0, i32 2
  %89 = load i32, ptr %88, align 8, !tbaa !98
  %90 = sub nsw i32 %84, %89
  %91 = sub nsw i32 %90, 1
  %92 = load i32, ptr %10, align 4, !tbaa !7
  %93 = sub nsw i32 %92, %91
  store i32 %93, ptr %10, align 4, !tbaa !7
  br label %94

94:                                               ; preds = %81, %52
  %95 = load i32, ptr %8, align 4, !tbaa !7
  %96 = load ptr, ptr %11, align 8, !tbaa !3
  %97 = getelementptr inbounds nuw %struct._lv_draw_sw_mask_map_param_t, ptr %96, i32 0, i32 1
  %98 = getelementptr inbounds nuw %struct.anon.3, ptr %97, i32 0, i32 0
  %99 = getelementptr inbounds nuw %struct.lv_area_t, ptr %98, i32 0, i32 0
  %100 = load i32, ptr %99, align 8, !tbaa !97
  %101 = icmp slt i32 %95, %100
  br i1 %101, label %102, label %117

102:                                              ; preds = %94
  call void @llvm.lifetime.start.p0(i64 4, ptr %13) #4
  store i32 0, ptr %13, align 4, !tbaa !7
  %103 = load ptr, ptr %11, align 8, !tbaa !3
  %104 = getelementptr inbounds nuw %struct._lv_draw_sw_mask_map_param_t, ptr %103, i32 0, i32 1
  %105 = getelementptr inbounds nuw %struct.anon.3, ptr %104, i32 0, i32 0
  %106 = getelementptr inbounds nuw %struct.lv_area_t, ptr %105, i32 0, i32 0
  %107 = load i32, ptr %106, align 8, !tbaa !97
  %108 = load i32, ptr %8, align 4, !tbaa !7
  %109 = sub nsw i32 %107, %108
  store i32 %109, ptr %13, align 4, !tbaa !7
  %110 = load i32, ptr %13, align 4, !tbaa !7
  %111 = load i32, ptr %10, align 4, !tbaa !7
  %112 = sub nsw i32 %111, %110
  store i32 %112, ptr %10, align 4, !tbaa !7
  %113 = load i32, ptr %13, align 4, !tbaa !7
  %114 = load ptr, ptr %7, align 8, !tbaa !3
  %115 = sext i32 %113 to i64
  %116 = getelementptr inbounds i8, ptr %114, i64 %115
  store ptr %116, ptr %7, align 8, !tbaa !3
  call void @llvm.lifetime.end.p0(i64 4, ptr %13) #4
  br label %128

117:                                              ; preds = %94
  %118 = load i32, ptr %8, align 4, !tbaa !7
  %119 = load ptr, ptr %11, align 8, !tbaa !3
  %120 = getelementptr inbounds nuw %struct._lv_draw_sw_mask_map_param_t, ptr %119, i32 0, i32 1
  %121 = getelementptr inbounds nuw %struct.anon.3, ptr %120, i32 0, i32 0
  %122 = getelementptr inbounds nuw %struct.lv_area_t, ptr %121, i32 0, i32 0
  %123 = load i32, ptr %122, align 8, !tbaa !97
  %124 = sub nsw i32 %118, %123
  %125 = load ptr, ptr %12, align 8, !tbaa !3
  %126 = sext i32 %124 to i64
  %127 = getelementptr inbounds i8, ptr %125, i64 %126
  store ptr %127, ptr %12, align 8, !tbaa !3
  br label %128

128:                                              ; preds = %117, %102
  call void @llvm.lifetime.start.p0(i64 4, ptr %14) #4
  store i32 0, ptr %14, align 4, !tbaa !7
  br label %129

129:                                              ; preds = %149, %128
  %130 = load i32, ptr %14, align 4, !tbaa !7
  %131 = load i32, ptr %10, align 4, !tbaa !7
  %132 = icmp slt i32 %130, %131
  br i1 %132, label %133, label %152

133:                                              ; preds = %129
  %134 = load ptr, ptr %7, align 8, !tbaa !3
  %135 = load i32, ptr %14, align 4, !tbaa !7
  %136 = sext i32 %135 to i64
  %137 = getelementptr inbounds i8, ptr %134, i64 %136
  %138 = load i8, ptr %137, align 1, !tbaa !26
  %139 = load ptr, ptr %12, align 8, !tbaa !3
  %140 = load i32, ptr %14, align 4, !tbaa !7
  %141 = sext i32 %140 to i64
  %142 = getelementptr inbounds i8, ptr %139, i64 %141
  %143 = load i8, ptr %142, align 1, !tbaa !26
  %144 = call zeroext i8 @mask_mix(i8 noundef zeroext %138, i8 noundef zeroext %143)
  %145 = load ptr, ptr %7, align 8, !tbaa !3
  %146 = load i32, ptr %14, align 4, !tbaa !7
  %147 = sext i32 %146 to i64
  %148 = getelementptr inbounds i8, ptr %145, i64 %147
  store i8 %144, ptr %148, align 1, !tbaa !26
  br label %149

149:                                              ; preds = %133
  %150 = load i32, ptr %14, align 4, !tbaa !7
  %151 = add nsw i32 %150, 1
  store i32 %151, ptr %14, align 4, !tbaa !7
  br label %129, !llvm.loop !99

152:                                              ; preds = %129
  store i32 2, ptr %6, align 4
  call void @llvm.lifetime.end.p0(i64 4, ptr %14) #4
  call void @llvm.lifetime.end.p0(i64 8, ptr %12) #4
  br label %153

153:                                              ; preds = %152, %51, %42, %31, %22
  %154 = load i32, ptr %6, align 4
  ret i32 %154
}