; Function Attrs: nounwind uwtable
define internal range(i32 1, 3) i32 @lv_draw_mask_map(ptr nocapture noundef %0, i32 noundef %1, i32 noundef %2, i32 noundef %3, ptr noundef %4) #0 {
  %6 = getelementptr inbounds nuw i8, ptr %4, i64 16
  %7 = getelementptr inbounds nuw i8, ptr %4, i64 20
  %8 = load i32, ptr %7, align 4, !tbaa !88
  %9 = icmp slt i32 %2, %8
  br i1 %9, label %.loopexit, label %10

10:                                               ; preds = %5
  %11 = getelementptr inbounds nuw i8, ptr %4, i64 28
  %12 = load i32, ptr %11, align 4, !tbaa !89
  %13 = icmp sgt i32 %2, %12
  br i1 %13, label %.loopexit, label %14

14:                                               ; preds = %10
  %15 = add nsw i32 %3, %1
  %16 = load i32, ptr %6, align 8, !tbaa !90
  %17 = icmp slt i32 %15, %16
  br i1 %17, label %.loopexit, label %18

18:                                               ; preds = %14
  %19 = getelementptr inbounds nuw i8, ptr %4, i64 24
  %20 = load i32, ptr %19, align 8, !tbaa !91
  %21 = icmp sgt i32 %1, %20
  br i1 %21, label %.loopexit, label %22

22:                                               ; preds = %18
  %23 = getelementptr inbounds nuw i8, ptr %4, i64 32
  %24 = load ptr, ptr %23, align 8, !tbaa !83
  %25 = sub nsw i32 %2, %8
  %26 = tail call i32 @lv_area_get_width(ptr noundef nonnull %6) #7
  %27 = mul nsw i32 %26, %25
  %28 = sext i32 %27 to i64
  %29 = getelementptr inbounds i8, ptr %24, i64 %28
  %30 = load i32, ptr %19, align 8, !tbaa !91
  %31 = icmp sgt i32 %15, %30
  %32 = xor i32 %30, -1
  %33 = add i32 %15, %32
  %34 = select i1 %31, i32 %33, i32 0
  %.044 = sub nsw i32 %3, %34
  %35 = load i32, ptr %6, align 8, !tbaa !90
  %36 = icmp slt i32 %1, %35
  br i1 %36, label %37, label %42

37:                                               ; preds = %22
  %38 = sub nsw i32 %35, %1
  %39 = sub nsw i32 %.044, %38
  %40 = sext i32 %38 to i64
  %41 = getelementptr inbounds i8, ptr %0, i64 %40
  br label %46

42:                                               ; preds = %22
  %43 = sub nsw i32 %1, %35
  %44 = sext i32 %43 to i64
  %45 = getelementptr inbounds i8, ptr %29, i64 %44
  br label %46

46:                                               ; preds = %42, %37
  %.1 = phi i32 [ %39, %37 ], [ %.044, %42 ]
  %.043 = phi ptr [ %41, %37 ], [ %0, %42 ]
  %.042 = phi ptr [ %29, %37 ], [ %45, %42 ]
  %47 = icmp sgt i32 %.1, 0
  br i1 %47, label %.lr.ph.preheader, label %.loopexit

.lr.ph.preheader:                                 ; preds = %46
  %wide.trip.count = zext nneg i32 %.1 to i64
  br label %.lr.ph

.lr.ph:                                           ; preds = %.lr.ph.preheader, %mask_mix.exit
  %indvars.iv = phi i64 [ 0, %.lr.ph.preheader ], [ %indvars.iv.next, %mask_mix.exit ]
  %48 = getelementptr inbounds i8, ptr %.043, i64 %indvars.iv
  %49 = load i8, ptr %48, align 1, !tbaa !34
  %50 = getelementptr inbounds i8, ptr %.042, i64 %indvars.iv
  %51 = load i8, ptr %50, align 1, !tbaa !34
  %52 = zext i8 %51 to i32
  %53 = icmp ugt i8 %51, -4
  br i1 %53, label %mask_mix.exit, label %54

54:                                               ; preds = %.lr.ph
  %55 = icmp ult i8 %51, 3
  br i1 %55, label %mask_mix.exit, label %56

56:                                               ; preds = %54
  %57 = zext i8 %49 to i32
  %58 = mul nuw nsw i32 %57, 32897
  %59 = mul nuw nsw i32 %58, %52
  %60 = lshr i32 %59, 23
  %61 = trunc nuw i32 %60 to i8
  br label %mask_mix.exit

mask_mix.exit:                                    ; preds = %.lr.ph, %54, %56
  %.0.i = phi i8 [ %61, %56 ], [ %49, %.lr.ph ], [ 0, %54 ]
  store i8 %.0.i, ptr %48, align 1, !tbaa !34
  %indvars.iv.next = add nuw nsw i64 %indvars.iv, 1
  %exitcond.not = icmp eq i64 %indvars.iv.next, %wide.trip.count
  br i1 %exitcond.not, label %.loopexit, label %.lr.ph, !llvm.loop !92

.loopexit:                                        ; preds = %mask_mix.exit, %46, %18, %14, %10, %5
  %.041 = phi i32 [ 1, %5 ], [ 1, %10 ], [ 1, %14 ], [ 1, %18 ], [ 2, %46 ], [ 2, %mask_mix.exit ]
  ret i32 %.041
}